target datalayout = "e-m:e-p270:32:32-p271:32:32-p272:64:64-i64:64-i128:128-f80:128-n8:16:32:64-S128"
target triple = "x86_64-pc-linux-gnu"

%"class.cv::Size_" = type { i32, i32 }
%"struct.cv::MatSize" = type { ptr }
%"struct.cv::MatStep" = type { ptr, [2 x i64] }
%"class.cv::Mat" = type { i32, i32, i32, i32, ptr, ptr, ptr, ptr, ptr, ptr, %"struct.cv::MatSize", %"struct.cv::MatStep" }
%"class.cv::optflow::PCAPrior" = type { %"class.cv::Mat", %"class.cv::Mat", %"class.cv::Mat", %"class.cv::Mat" }

; Function Attrs: mustprogress nounwind uwtable
define linkonce_odr hidden void @_ZN2cv5Size_IiEC2Eii(ptr noundef nonnull align 4 dereferenceable(8) %0, i32 noundef %1, i32 noundef %2) unnamed_addr #5 comdat align 2 {
  %4 = alloca ptr, align 8
  %5 = alloca i32, align 4
  %6 = alloca i32, align 4
  store ptr %0, ptr %4, align 8
  store i32 %1, ptr %5, align 4
  store i32 %2, ptr %6, align 4
  %7 = load ptr, ptr %4, align 8
  %8 = getelementptr inbounds %"class.cv::Size_", ptr %7, i32 0, i32 0
  %9 = load i32, ptr %5, align 4
  store i32 %9, ptr %8, align 4
  %10 = getelementptr inbounds %"class.cv::Size_", ptr %7, i32 0, i32 1
  %11 = load i32, ptr %6, align 4
  store i32 %11, ptr %10, align 4
  ret void
}

; Function Attrs: mustprogress nounwind uwtable
define linkonce_odr hidden noundef i32 @_ZNK2cv5Size_IiE4areaEv(ptr noundef nonnull align 4 dereferenceable(8) %0) #5 comdat align 2 {
  %2 = alloca ptr, align 8
  %3 = alloca i32, align 4
  store ptr %0, ptr %2, align 8
  %4 = load ptr, ptr %2, align 8
  %5 = getelementptr inbounds %"class.cv::Size_", ptr %4, i32 0, i32 0
  %6 = load i32, ptr %5, align 4
  %7 = getelementptr inbounds %"class.cv::Size_", ptr %4, i32 0, i32 1
  %8 = load i32, ptr %7, align 4
  %9 = mul nsw i32 %6, %8
  store i32 %9, ptr %3, align 4
  %10 = load i32, ptr %3, align 4
  ret i32 %10
}

; Function Attrs: mustprogress uwtable
define linkonce_odr hidden i64 @_ZNK2cv7MatSizeclEv(ptr noundef nonnull align 8 dereferenceable(8) %0) #4 comdat align 2 {
  %2 = alloca %"class.cv::Size_", align 4
  %3 = alloca ptr, align 8
  store ptr %0, ptr %3, align 8
  %4 = load ptr, ptr %3, align 8
  %5 = getelementptr inbounds %"struct.cv::MatSize", ptr %4, i32 0, i32 0
  %6 = load ptr, ptr %5, align 8
  %7 = getelementptr inbounds i32, ptr %6, i64 1
  %8 = load i32, ptr %7, align 4
  %9 = getelementptr inbounds %"struct.cv::MatSize", ptr %4, i32 0, i32 0
  %10 = load ptr, ptr %9, align 8
  %11 = getelementptr inbounds i32, ptr %10, i64 0
  %12 = load i32, ptr %11, align 4
  call void @_ZN2cv5Size_IiEC2Eii(ptr noundef nonnull align 4 dereferenceable(8) %2, i32 noundef %8, i32 noundef %12)
  %13 = load i64, ptr %2, align 4
  ret i64 %13
}

; Function Attrs: mustprogress nounwind uwtable
define linkonce_odr hidden noundef ptr @_ZNK2cv3Mat3ptrIfEEPKT_i(ptr noundef nonnull align 8 dereferenceable(96) %0, i32 noundef %1) #5 comdat align 2 {
  %3 = alloca ptr, align 8
  %4 = alloca i32, align 4
  store ptr %0, ptr %3, align 8
  store i32 %1, ptr %4, align 4
  %5 = load ptr, ptr %3, align 8
  %6 = getelementptr inbounds %"class.cv::Mat", ptr %5, i32 0, i32 4
  %7 = load ptr, ptr %6, align 8
  %8 = getelementptr inbounds %"class.cv::Mat", ptr %5, i32 0, i32 11
  %9 = getelementptr inbounds %"struct.cv::MatStep", ptr %8, i32 0, i32 0
  %10 = load ptr, ptr %9, align 8
  %11 = getelementptr inbounds i64, ptr %10, i64 0
  %12 = load i64, ptr %11, align 8
  %13 = load i32, ptr %4, align 4
  %14 = sext i32 %13 to i64
  %15 = mul i64 %12, %14
  %16 = getelementptr inbounds i8, ptr %7, i64 %15
  ret ptr %16
}

; Function Attrs: mustprogress uwtable
define void @_ZNK2cv7optflow8PCAPrior15fillConstraintsEPfS2_S2_S2_(ptr noundef nonnull align 8 dereferenceable(384) %0, ptr noundef %1, ptr noundef %2, ptr noundef %3, ptr noundef %4) #4 align 2 {
  %6 = alloca ptr, align 8
  %7 = alloca ptr, align 8
  %8 = alloca ptr, align 8
  %9 = alloca ptr, align 8
  %10 = alloca ptr, align 8
  %11 = alloca %"class.cv::Size_", align 4
  %12 = alloca %"class.cv::Size_", align 4
  %13 = alloca %"class.cv::Size_", align 4
  %14 = alloca %"class.cv::Size_", align 4
  store ptr %0, ptr %6, align 8
  store ptr %1, ptr %7, align 8
  store ptr %2, ptr %8, align 8
  store ptr %3, ptr %9, align 8
  store ptr %4, ptr %10, align 8
  %15 = load ptr, ptr %6, align 8
  %16 = load ptr, ptr %7, align 8
  %17 = getelementptr inbounds %"class.cv::optflow::PCAPrior", ptr %15, i32 0, i32 0
  %18 = call noundef ptr @_ZNK2cv3Mat3ptrIfEEPKT_i(ptr noundef nonnull align 8 dereferenceable(96) %17, i32 noundef 0)
  %19 = getelementptr inbounds %"class.cv::optflow::PCAPrior", ptr %15, i32 0, i32 0
  %20 = getelementptr inbounds %"class.cv::Mat", ptr %19, i32 0, i32 10
  %21 = call i64 @_ZNK2cv7MatSizeclEv(ptr noundef nonnull align 8 dereferenceable(8) %20)
  store i64 %21, ptr %11, align 4
  %22 = call noundef i32 @_ZNK2cv5Size_IiE4areaEv(ptr noundef nonnull align 4 dereferenceable(8) %11)
  %23 = sext i32 %22 to i64
  %24 = mul i64 %23, 4
  call void @llvm.memcpy.p0.p0.i64(ptr align 4 %16, ptr align 4 %18, i64 %24, i1 false)
  %25 = load ptr, ptr %8, align 8
  %26 = getelementptr inbounds %"class.cv::optflow::PCAPrior", ptr %15, i32 0, i32 1
  %27 = call noundef ptr @_ZNK2cv3Mat3ptrIfEEPKT_i(ptr noundef nonnull align 8 dereferenceable(96) %26, i32 noundef 0)
  %28 = getelementptr inbounds %"class.cv::optflow::PCAPrior", ptr %15, i32 0, i32 1
  %29 = getelementptr inbounds %"class.cv::Mat", ptr %28, i32 0, i32 10
  %30 = call i64 @_ZNK2cv7MatSizeclEv(ptr noundef nonnull align 8 dereferenceable(8) %29)
  store i64 %30, ptr %12, align 4
  %31 = call noundef i32 @_ZNK2cv5Size_IiE4areaEv(ptr noundef nonnull align 4 dereferenceable(8) %12)
  %32 = sext i32 %31 to i64
  %33 = mul i64 %32, 4
  call void @llvm.memcpy.p0.p0.i64(ptr align 4 %25, ptr align 4 %27, i64 %33, i1 false)
  %34 = load ptr, ptr %9, align 8
  %35 = getelementptr inbounds %"class.cv::optflow::PCAPrior", ptr %15, i32 0, i32 2
  %36 = call noundef ptr @_ZNK2cv3Mat3ptrIfEEPKT_i(ptr noundef nonnull align 8 dereferenceable(96) %35, i32 noundef 0)
  %37 = getelementptr inbounds %"class.cv::optflow::PCAPrior", ptr %15, i32 0, i32 2
  %38 = getelementptr inbounds %"class.cv::Mat", ptr %37, i32 0, i32 10
  %39 = call i64 @_ZNK2cv7MatSizeclEv(ptr noundef nonnull align 8 dereferenceable(8) %38)
  store i64 %39, ptr %13, align 4
  %40 = call noundef i32 @_ZNK2cv5Size_IiE4areaEv(ptr noundef nonnull align 4 dereferenceable(8) %13)
  %41 = sext i32 %40 to i64
  %42 = mul i64 %41, 4
  call void @llvm.memcpy.p0.p0.i64(ptr align 4 %34, ptr align 4 %36, i64 %42, i1 false)
  %43 = load ptr, ptr %10, align 8
  %44 = getelementptr inbounds %"class.cv::optflow::PCAPrior", ptr %15, i32 0, i32 3
  %45 = call noundef ptr @_ZNK2cv3Mat3ptrIfEEPKT_i(ptr noundef nonnull align 8 dereferenceable(96) %44, i32 noundef 0)
  %46 = getelementptr inbounds %"class.cv::optflow::PCAPrior", ptr %15, i32 0, i32 3
  %47 = getelementptr inbounds %"class.cv::Mat", ptr %46, i32 0, i32 10
  %48 = call i64 @_ZNK2cv7MatSizeclEv(ptr noundef nonnull align 8 dereferenceable(8) %47)
  store i64 %48, ptr %14, align 4
  %49 = call noundef i32 @_ZNK2cv5Size_IiE4areaEv(ptr noundef nonnull align 4 dereferenceable(8) %14)
  %50 = sext i32 %49 to i64
  %51 = mul i64 %50, 4
  call void @llvm.memcpy.p0.p0.i64(ptr align 4 %43, ptr align 4 %45, i64 %51, i1 false)
  ret void
}