; Function Attrs: mustprogress nofree norecurse nosync nounwind willreturn memory(readwrite, inaccessiblemem: none) uwtable
define void @_ZNK2cv7optflow8PCAPrior15fillConstraintsEPfS2_S2_S2_(ptr nocapture noundef nonnull readonly align 8 dereferenceable(384) %0, ptr nocapture noundef writeonly %1, ptr nocapture noundef writeonly %2, ptr nocapture noundef writeonly %3, ptr nocapture noundef writeonly %4) local_unnamed_addr #7 align 2 {
  %6 = getelementptr inbounds i8, ptr %0, i64 16
  %7 = load ptr, ptr %6, align 8
  %8 = getelementptr inbounds i8, ptr %0, i64 64
  %9 = load ptr, ptr %8, align 8
  %10 = getelementptr inbounds i8, ptr %9, i64 4
  %11 = load i32, ptr %10, align 4
  %12 = load i32, ptr %9, align 4
  %13 = mul nsw i32 %12, %11
  %14 = sext i32 %13 to i64
  %15 = shl nsw i64 %14, 2
  tail call void @llvm.memcpy.p0.p0.i64(ptr align 4 %1, ptr align 4 %7, i64 %15, i1 false)
  %16 = getelementptr inbounds i8, ptr %0, i64 112
  %17 = load ptr, ptr %16, align 8
  %18 = getelementptr inbounds i8, ptr %0, i64 160
  %19 = load ptr, ptr %18, align 8
  %20 = getelementptr inbounds i8, ptr %19, i64 4
  %21 = load i32, ptr %20, align 4
  %22 = load i32, ptr %19, align 4
  %23 = mul nsw i32 %22, %21
  %24 = sext i32 %23 to i64
  %25 = shl nsw i64 %24, 2
  tail call void @llvm.memcpy.p0.p0.i64(ptr align 4 %2, ptr align 4 %17, i64 %25, i1 false)
  %26 = getelementptr inbounds i8, ptr %0, i64 208
  %27 = load ptr, ptr %26, align 8
  %28 = getelementptr inbounds i8, ptr %0, i64 256
  %29 = load ptr, ptr %28, align 8
  %30 = getelementptr inbounds i8, ptr %29, i64 4
  %31 = load i32, ptr %30, align 4
  %32 = load i32, ptr %29, align 4
  %33 = mul nsw i32 %32, %31
  %34 = sext i32 %33 to i64
  %35 = shl nsw i64 %34, 2
  tail call void @llvm.memcpy.p0.p0.i64(ptr align 4 %3, ptr align 4 %27, i64 %35, i1 false)
  %36 = getelementptr inbounds i8, ptr %0, i64 304
  %37 = load ptr, ptr %36, align 8
  %38 = getelementptr inbounds i8, ptr %0, i64 352
  %39 = load ptr, ptr %38, align 8
  %40 = getelementptr inbounds i8, ptr %39, i64 4
  %41 = load i32, ptr %40, align 4
  %42 = load i32, ptr %39, align 4
  %43 = mul nsw i32 %42, %41
  %44 = sext i32 %43 to i64
  %45 = shl nsw i64 %44, 2
  tail call void @llvm.memcpy.p0.p0.i64(ptr align 4 %4, ptr align 4 %37, i64 %45, i1 false)
  ret void
}